; Function Attrs: nounwind uwtable
define noalias nonnull ptr @l_Lake_Package_key___boxed(ptr noundef %0) local_unnamed_addr #0 {
  %2 = getelementptr inbounds nuw i8, ptr %0, i64 8
  %3 = load ptr, ptr %2, align 8, !tbaa !4
  %4 = ptrtoint ptr %3 to i64
  %5 = and i64 %4, 1
  %.not.i3 = icmp eq i64 %5, 0
  br i1 %.not.i3, label %6, label %lean_inc.exit.i

6:                                                ; preds = %1
  %.val.i.i = load i32, ptr %3, align 4, !tbaa !8
  %7 = icmp sgt i32 %.val.i.i, 0
  br i1 %7, label %8, label %10, !prof !11

8:                                                ; preds = %6
  %9 = add nuw i32 %.val.i.i, 1
  store i32 %9, ptr %3, align 4, !tbaa !8
  br label %lean_inc.exit.i

10:                                               ; preds = %6
  %.not.i.i = icmp eq i32 %.val.i.i, 0
  br i1 %.not.i.i, label %lean_inc.exit.i, label %11

11:                                               ; preds = %10
  tail call void @lean_inc_ref_cold(ptr noundef nonnull %3) #3
  br label %lean_inc.exit.i

lean_inc.exit.i:                                  ; preds = %11, %10, %8, %1
  tail call void @lean_inc_heartbeat() #3
  %12 = tail call noalias ptr @mi_malloc_small(i64 noundef 16) #3
  %13 = icmp eq ptr %12, null
  br i1 %13, label %14, label %l_Lake_Package_key.exit

14:                                               ; preds = %lean_inc.exit.i
  tail call void @lean_internal_panic_out_of_memory() #4
  unreachable

l_Lake_Package_key.exit:                          ; preds = %lean_inc.exit.i
  %15 = getelementptr inbounds nuw i8, ptr %12, i64 4
  store i32 1, ptr %12, align 4, !tbaa !8
  store i32 16842768, ptr %15, align 4
  %16 = getelementptr inbounds nuw i8, ptr %12, i64 8
  store ptr %3, ptr %16, align 8, !tbaa !4
  %17 = ptrtoint ptr %0 to i64
  %18 = and i64 %17, 1
  %.not = icmp eq i64 %18, 0
  br i1 %.not, label %19, label %lean_dec.exit

19:                                               ; preds = %l_Lake_Package_key.exit
  %20 = load i32, ptr %0, align 4, !tbaa !8
  %21 = icmp sgt i32 %20, 1
  br i1 %21, label %22, label %24, !prof !11

22:                                               ; preds = %19
  %23 = add nsw i32 %20, -1
  store i32 %23, ptr %0, align 4, !tbaa !8
  br label %lean_dec.exit

24:                                               ; preds = %19
  %.not.i = icmp eq i32 %20, 0
  br i1 %.not.i, label %lean_dec.exit, label %25

25:                                               ; preds = %24
  tail call void @lean_dec_ref_cold(ptr noundef nonnull %0) #3
  br label %lean_dec.exit

lean_dec.exit:                                    ; preds = %25, %24, %22, %l_Lake_Package_key.exit
  ret ptr %12
}